Certificate:
    Data:
        Version: 3 (0x2)
        Serial Number:
            0a:05:9b:25:f5:4b:3d:87:94:cc:66:31:47:75:38:a3
        Signature Algorithm: sha256WithRSAEncryption
        Issuer: C = US, O = DigiCert Inc, OU = www.digicert.com, CN = DigiCert Global Root CA
        Validity
            Not Before: May  4 00:00:00 2022 GMT
            Not After : Nov  9 23:59:59 2031 GMT
        Subject: C = US, O = "DigiCert, Inc.", CN = RapidSSL Global TLS RSA4096 SHA256 2022 CA1
        Subject Public Key Info:
            Public Key Algorithm: rsaEncryption
                Public-Key: (4096 bit)
                Modulus:
                    00:a6:39:3c:98:70:09:7d:94:c8:16:f5:9d:e9:6e:
                    f4:03:de:9f:9d:c3:e7:e0:b8:d1:3f:81:39:97:d2:
                    15:a0:74:bf:45:89:33:70:46:32:cb:a2:1d:95:f6:
                    20:7b:70:9e:35:21:2c:bd:b9:77:cb:60:2c:04:9a:
                    50:d1:c2:04:d2:8a:52:55:06:45:71:b3:b6:e0:c8:
                    79:76:f8:f1:de:b8:93:b1:a4:ee:ee:e6:31:14:ab:
                    8f:ec:ae:2d:25:8e:2a:72:ba:38:62:9e:f7:eb:3a:
                    a1:a5:48:8c:75:d8:f9:05:fc:a7:62:36:4b:7b:9e:
                    c3:46:d6:dc:11:69:91:e0:2b:2c:10:94:db:98:aa:
                    79:aa:0b:10:e1:88:6b:4f:43:56:88:dd:de:a7:3f:
                    44:aa:ab:e0:fd:75:d7:bd:d1:fb:b5:1b:d3:96:18:
                    86:e2:1c:4a:ff:1e:d1:de:ea:37:5b:0e:d7:e9:5f:
                    a0:d3:15:7d:5f:56:72:a3:c0:06:63:9a:b0:d2:7e:
                    a2:5d:21:00:2d:8f:4e:04:4b:cb:f5:59:a3:52:f4:
                    1d:13:2b:ea:3f:1c:6d:1e:ea:d2:72:b0:75:b9:f8:
                    02:bf:99:32:00:a0:09:c1:bd:cc:23:05:b2:e5:d8:
                    97:fa:ea:a1:b8:b2:57:ef:14:df:b7:43:49:c0:1e:
                    6d:94:c8:17:fc:4f:12:f1:dc:98:68:b7:c7:11:fa:
                    83:e7:53:0a:37:ad:3a:32:71:f2:c7:57:50:72:97:
                    19:70:bd:91:ad:f7:ab:b1:33:40:86:25:64:84:85:
                    ec:49:1b:4f:97:59:1e:c3:b6:0c:e3:15:2c:17:4f:
                    d4:dd:68:52:9d:3f:d5:fe:9f:73:cb:93:0d:db:84:
                    2e:82:81:47:34:d3:67:a3:8e:05:51:de:67:21:59:
                    30:c7:62:ea:d0:39:b3:f8:f1:99:be:f8:96:a1:f5:
                    fa:34:3a:9d:35:36:fc:c9:9a:84:63:71:52:e2:69:
                    ca:15:07:7b:38:01:03:ab:2d:a3:99:4d:7b:2a:9c:
                    fb:70:ab:e5:e8:45:43:35:2e:c0:db:09:69:66:c3:
                    75:09:35:bf:b9:6a:45:aa:8e:95:88:e7:8a:89:8e:
                    97:7e:89:e6:dc:53:b3:4c:0b:ed:eb:42:78:c4:5f:
                    c8:fb:26:73:ef:07:98:7e:fb:21:85:4c:50:e7:0f:
                    25:bf:b4:80:db:92:98:09:2f:7f:94:17:6e:03:c8:
                    66:ea:ec:9f:f5:18:9c:ff:68:6e:13:5b:1d:cf:fd:
                    2d:87:50:90:1e:c2:5f:25:fd:98:f7:b1:9c:33:4e:
                    ee:98:20:34:0d:a3:a5:b1:1a:ac:b9:99:1a:2e:20:
                    ac:c9:9f
                Exponent: 65537 (0x10001)
        X509v3 extensions:
            X509v3 Basic Constraints: critical
                CA:TRUE, pathlen:0
            X509v3 Subject Key Identifier: 
                F0:9C:85:FD:A2:9F:7D:8F:C9:68:BB:D5:D4:89:4D:1D:BE:D3:90:FF
            X509v3 Authority Key Identifier: 
                03:DE:50:35:56:D1:4C:BB:66:F0:A3:E2:1B:1B:C3:97:B2:3D:D1:55
            X509v3 Key Usage: critical
                Digital Signature, Certificate Sign, CRL Sign
            X509v3 Extended Key Usage: 
                TLS Web Server Authentication, TLS Web Client Authentication
            Authority Information Access: 
                OCSP - URI:http://ocsp.digicert.com
                CA Issuers - URI:http://cacerts.digicert.com/DigiCertGlobalRootCA.crt
            X509v3 CRL Distribution Points: 
                Full Name:
                  URI:http://crl3.digicert.com/DigiCertGlobalRootCA.crl
            X509v3 Certificate Policies: 
                Policy: 2.16.840.1.114412.2.1
                Policy: 2.23.140.1.1
                Policy: 2.23.140.1.2.1
                Policy: 2.23.140.1.2.2
                Policy: 2.23.140.1.2.3
    Signature Algorithm: sha256WithRSAEncryption
    Signature Value:
        07:e3:87:fb:35:7f:97:43:75:f9:b4:b0:d9:bb:e3:f7:56:31:
        b6:ec:c5:f6:15:d4:ba:13:a4:5b:7e:dc:c4:94:5a:f4:9b:88:
        f4:1f:52:4a:15:e7:b6:f9:ae:eb:51:26:f9:cf:3f:d9:92:96:
        91:70:71:9d:de:d6:74:94:6e:2d:a8:21:31:80:ed:10:8e:8f:
        6d:c8:d4:5e:33:93:46:09:9b:8d:aa:03:02:48:a8:e5:5e:9d:
        1d:d7:b7:24:36:55:1f:36:aa:10:ba:c6:c9:71:b4:d7:fb:7f:
        63:5d:c7:61:bb:31:e9:b8:c2:91:61:c8:f0:d3:d8:fe:94:27:
        63:27:ac:3f:85:0b:ff:d9:28:7e:7f:11:1a:3d:ea:08:73:f1:
        5a:8d:96:62:f9:45:7a:3c:2a:cf:6b:32:bf:c0:77:dc:70:63:
        88:72:46:f0:33:e7:dd:b4:9b:25:1f:7f:07:54:a9:cd:12:bc:
        f9:45:9d:a8:6c:66:0d:79:b9:3e:47:90:ae:3c:b4:74:74:4c:
        bb:8b:1f:c6:91:a7:38:78:28:9f:d8:a7:4b:00:44:d6:fe:f6:
        2d:51:e0:58:39:cc:f3:6f:1e:cd:81:6c:8b:de:d2:f9:30:c4:
        0c:be:47:8e:f6:ee:a6:33:97:7d:36:ef:0f:63:10:50:ba:1c:
        c5:d1:68:37
-----BEGIN CERTIFICATE-----
MIIFyzCCBLOgAwIBAgIQCgWbJfVLPYeUzGYxR3U4ozANBgkqhkiG9w0BAQsFADBh
MQswCQYDVQQGEwJVUzEVMBMGA1UEChMMRGlnaUNlcnQgSW5jMRkwFwYDVQQLExB3
d3cuZGlnaWNlcnQuY29tMSAwHgYDVQQDExdEaWdpQ2VydCBHbG9iYWwgUm9vdCBD
QTAeFw0yMjA1MDQwMDAwMDBaFw0zMTExMDkyMzU5NTlaMFwxCzAJBgNVBAYTAlVT
MRcwFQYDVQQKEw5EaWdpQ2VydCwgSW5jLjE0MDIGA1UEAxMrUmFwaWRTU0wgR2xv
YmFsIFRMUyBSU0E0MDk2IFNIQTI1NiAyMDIyIENBMTCCAiIwDQYJKoZIhvcNAQEB
BQADggIPADCCAgoCggIBAKY5PJhwCX2UyBb1nelu9APen53D5+C40T+BOZfSFaB0
v0WJM3BGMsuiHZX2IHtwnjUhLL25d8tgLASaUNHCBNKKUlUGRXGztuDIeXb48d64
k7Gk7u7mMRSrj+yuLSWOKnK6OGKe9+s6oaVIjHXY+QX8p2I2S3uew0bW3BFpkeAr
LBCU25iqeaoLEOGIa09DVojd3qc/RKqr4P11173R+7Ub05YYhuIcSv8e0d7qN1sO
1+lfoNMVfV9WcqPABmOasNJ+ol0hAC2PTgRLy/VZo1L0HRMr6j8cbR7q0nKwdbn4
Ar+ZMgCgCcG9zCMFsuXYl/rqobiyV+8U37dDScAebZTIF/xPEvHcmGi3xxH6g+dT
CjetOjJx8sdXUHKXGXC9ka33q7EzQIYlZISF7EkbT5dZHsO2DOMVLBdP1N1oUp0/
1f6fc8uTDduELoKBRzTTZ6OOBVHeZyFZMMdi6tA5s/jxmb74lqH1+jQ6nTU2/Mma
hGNxUuJpyhUHezgBA6sto5lNeyqc+3Cr5ehFQzUuwNsJaWbDdQk1v7lqRaqOlYjn
iomOl36J5txTs0wL7etCeMRfyPsmc+8HmH77IYVMUOcPJb+0gNuSmAkvf5QXbgPI
Zursn/UYnP9obhNbHc/9LYdQkB7CXyX9mPexnDNO7pggNA2jpbEarLmZGi4grMmf
AgMBAAGjggGCMIIBfjASBgNVHRMBAf8ECDAGAQH/AgEAMB0GA1UdDgQWBBTwnIX9
op99j8lou9XUiU0dvtOQ/zAfBgNVHSMEGDAWgBQD3lA1VtFMu2bwo+IbG8OXsj3R
VTAOBgNVHQ8BAf8EBAMCAYYwHQYDVR0lBBYwFAYIKwYBBQUHAwEGCCsGAQUFBwMC
MHYGCCsGAQUFBwEBBGowaDAkBggrBgEFBQcwAYYYaHR0cDovL29jc3AuZGlnaWNl
cnQuY29tMEAGCCsGAQUFBzAChjRodHRwOi8vY2FjZXJ0cy5kaWdpY2VydC5jb20v
RGlnaUNlcnRHbG9iYWxSb290Q0EuY3J0MEIGA1UdHwQ7MDkwN6A1oDOGMWh0dHA6
Ly9jcmwzLmRpZ2ljZXJ0LmNvbS9EaWdpQ2VydEdsb2JhbFJvb3RDQS5jcmwwPQYD
VR0gBDYwNDALBglghkgBhv1sAgEwBwYFZ4EMAQEwCAYGZ4EMAQIBMAgGBmeBDAEC
AjAIBgZngQwBAgMwDQYJKoZIhvcNAQELBQADggEBAAfjh/s1f5dDdfm0sNm74/dW
MbbsxfYV1LoTpFt+3MSUWvSbiPQfUkoV57b5rutRJvnPP9mSlpFwcZ3e1nSUbi2o
ITGA7RCOj23I1F4zk0YJm42qAwJIqOVenR3XtyQ2VR82qhC6xslxtNf7f2Ndx2G7
Mem4wpFhyPDT2P6UJ2MnrD+FC//ZKH5/ERo96ghz8VqNlmL5RXo8Ks9rMr/Ad9xw
Y4hyRvAz5920myUffwdUqc0SvPlFnahsZg15uT5HkK48tHR0TLuLH8aRpzh4KJ/Y
p0sARNb+9i1R4Fg5zPNvHs2BbIve0vkwxAy+R4727qYzl3027w9jEFC6HMXRaDc=
-----END CERTIFICATE-----
